; Function Attrs: nounwind uwtable
define ptr @SSL_get_session(ptr noundef %0) local_unnamed_addr #3 {
  %2 = icmp eq ptr %0, null
  br i1 %2, label %.thread, label %3

3:                                                ; preds = %1
  %4 = load i32, ptr %0, align 8, !tbaa !7
  %5 = icmp eq i32 %4, 0
  br i1 %5, label %.thread11, label %6

6:                                                ; preds = %3
  %7 = and i32 %4, 128
  %.not = icmp eq i32 %7, 0
  br i1 %.not, label %.thread, label %8

8:                                                ; preds = %6
  %9 = tail call ptr @ossl_quic_obj_get0_handshake_layer(ptr noundef nonnull %0) #11
  %10 = icmp eq ptr %9, null
  br i1 %10, label %.thread, label %.thread11

.thread11:                                        ; preds = %3, %8
  %11 = phi ptr [ %9, %8 ], [ %0, %3 ]
  %12 = getelementptr inbounds nuw i8, ptr %11, i64 2304
  %13 = load ptr, ptr %12, align 8, !tbaa !17
  br label %.thread

.thread:                                          ; preds = %6, %1, %8, %.thread11
  %.0 = phi ptr [ %13, %.thread11 ], [ null, %8 ], [ null, %1 ], [ null, %6 ]
  ret ptr %.0
}